target datalayout = "e-m:e-p270:32:32-p271:32:32-p272:64:64-i64:64-i128:128-f80:128-n8:16:32:64-S128"
target triple = "x86_64-pc-linux-gnu"

; Function Attrs: nounwind uwtable
define dso_local void @str_trim_end(ptr noundef %0) #0 {
  %2 = alloca ptr, align 8
  %3 = alloca i64, align 8
  %4 = alloca ptr, align 8
  store ptr %0, ptr %2, align 8
  %5 = load ptr, ptr %2, align 8
  %6 = call i64 @strlen(ptr noundef %5) #7
  store i64 %6, ptr %3, align 8
  %7 = load ptr, ptr %2, align 8
  %8 = load i64, ptr %3, align 8
  %9 = getelementptr inbounds i8, ptr %7, i64 %8
  %10 = getelementptr inbounds i8, ptr %9, i64 -1
  store ptr %10, ptr %4, align 8
  br label %11

11:                                               ; preds = %18, %1
  %12 = load i64, ptr %3, align 8
  %13 = icmp ugt i64 %12, 0
  br i1 %13, label %14, label %26

14:                                               ; preds = %11
  %15 = load ptr, ptr %4, align 8
  %16 = load i8, ptr %15, align 1
  %17 = sext i8 %16 to i32
  switch i32 %17, label %23 [
    i32 32, label %18
    i32 9, label %18
    i32 10, label %18
    i32 13, label %18
  ]

18:                                               ; preds = %14, %14, %14, %14
  %19 = load i64, ptr %3, align 8
  %20 = add i64 %19, -1
  store i64 %20, ptr %3, align 8
  %21 = load ptr, ptr %4, align 8
  %22 = getelementptr inbounds i8, ptr %21, i32 -1
  store ptr %22, ptr %4, align 8
  br label %11, !llvm.loop !21

23:                                               ; preds = %14
  %24 = load ptr, ptr %4, align 8
  %25 = getelementptr inbounds i8, ptr %24, i64 1
  store i8 0, ptr %25, align 1
  br label %26

26:                                               ; preds = %23, %11
  ret void
}