; Function Attrs: nofree nounwind memory(readwrite, inaccessiblemem: none) uwtable
define dso_local void @str_trim_end(ptr nocapture noundef %0) local_unnamed_addr #13 {
  %2 = tail call i64 @strlen(ptr noundef nonnull dereferenceable(1) %0) #20
  %.not10 = icmp eq i64 %2, 0
  br i1 %.not10, label %.loopexit, label %.lr.ph.preheader

.lr.ph.preheader:                                 ; preds = %1
  %3 = getelementptr inbounds i8, ptr %0, i64 %2
  br label %.lr.ph

.lr.ph:                                           ; preds = %.lr.ph.preheader, %5
  %.pn12 = phi ptr [ %.013, %5 ], [ %3, %.lr.ph.preheader ]
  %.0711 = phi i64 [ %6, %5 ], [ %2, %.lr.ph.preheader ]
  %.013 = getelementptr inbounds i8, ptr %.pn12, i64 -1
  %4 = load i8, ptr %.013, align 1
  switch i8 %4, label %7 [
    i8 32, label %5
    i8 9, label %5
    i8 10, label %5
    i8 13, label %5
  ]

5:                                                ; preds = %.lr.ph, %.lr.ph, %.lr.ph, %.lr.ph
  %6 = add i64 %.0711, -1
  %.not = icmp eq i64 %6, 0
  br i1 %.not, label %.loopexit, label %.lr.ph, !llvm.loop !20

7:                                                ; preds = %.lr.ph
  store i8 0, ptr %.pn12, align 1
  br label %.loopexit

.loopexit:                                        ; preds = %5, %1, %7
  ret void
}